target datalayout = "e-m:e-p270:32:32-p271:32:32-p272:64:64-i64:64-i128:128-f80:128-n8:16:32:64-S128"
target triple = "x86_64-pc-linux-gnu"

%struct.ssl_st = type { i32, i16, i16, ptr, ptr, ptr, ptr, ptr, i32, i32, ptr, ptr, i32, i32, ptr, ptr, ptr, ptr, ptr, ptr, ptr, ptr, i32, i32, [32 x i8], ptr, ptr, ptr, ptr, ptr, ptr, ptr, i64, %struct.crypto_ex_data_st, ptr, i32, i32, i32, i32, i16, ptr, i32, i64, ptr, ptr, ptr, ptr, ptr, ptr, i32, i32, ptr, ptr, i8, i8, i32 }
%struct.crypto_ex_data_st = type { ptr }
%struct.ssl3_state_st = type { [8 x i8], [8 x i8], [32 x i8], [32 x i8], i8, i8, %struct.ssl3_buffer_st, %struct.ssl3_buffer_st, %struct.ssl3_record_st, i8, i32, i32, i32, i32, ptr, ptr, %struct.env_md_ctx_st, %struct.env_md_ctx_st, i8, i32, [2 x i8], i32, i8, i8, ptr, ptr, ptr, %struct.anon, [64 x i8], i8, [64 x i8], i8, i32, i32, ptr, i64, ptr, i64, i8, [64 x i8] }
%struct.ssl3_buffer_st = type { ptr, i16, i16, i16 }
%struct.ssl3_record_st = type { i8, i16, ptr }
%struct.env_md_ctx_st = type { ptr, ptr, ptr, ptr }
%struct.anon = type { [64 x i8], i32, [64 x i8], i32, i64, i32, ptr, i32, i32, %union.anon, %union.anon.0, i8, i32, ptr, ptr, i64, ptr, i8, i8, i8, i8, i32, i8, ptr, i64, i8, ptr, i8, i8, i8, %struct.ssl_ecdh_ctx_st, ptr, i16 }
%union.anon = type { i32 }
%union.anon.0 = type { i16 }
%struct.ssl_ecdh_ctx_st = type { ptr, ptr }

; Function Attrs: nounwind uwtable
define hidden i32 @tls1_change_cipher_state(ptr noundef %0, i32 noundef %1) #0 {
  %3 = alloca i32, align 4
  %4 = alloca ptr, align 8
  %5 = alloca i32, align 4
  %6 = alloca i8, align 1
  %7 = alloca i8, align 1
  %8 = alloca i64, align 8
  %9 = alloca i64, align 8
  %10 = alloca i64, align 8
  %11 = alloca ptr, align 8
  %12 = alloca ptr, align 8
  %13 = alloca ptr, align 8
  %14 = alloca ptr, align 8
  %15 = alloca ptr, align 8
  %16 = alloca ptr, align 8
  %17 = alloca ptr, align 8
  %18 = alloca ptr, align 8
  %19 = alloca ptr, align 8
  %20 = alloca ptr, align 8
  %21 = alloca ptr, align 8
  %22 = alloca i32, align 4
  store ptr %0, ptr %4, align 8, !tbaa !6
  store i32 %1, ptr %5, align 4, !tbaa !11
  %23 = load ptr, ptr %4, align 8, !tbaa !6
  %24 = call i32 @tls1_setup_key_block(ptr noundef %23)
  %25 = icmp ne i32 %24, 0
  br i1 %25, label %27, label %26

26:                                               ; preds = %2
  store i32 0, ptr %3, align 4
  br label %137

27:                                               ; preds = %2
  call void @llvm.lifetime.start.p0(i64 1, ptr %6) #7
  %28 = load i32, ptr %5, align 4, !tbaa !11
  %29 = and i32 %28, 1
  %30 = icmp ne i32 %29, 0
  %31 = zext i1 %30 to i32
  %32 = trunc i32 %31 to i8
  store i8 %32, ptr %6, align 1, !tbaa !13
  call void @llvm.lifetime.start.p0(i64 1, ptr %7) #7
  %33 = load i32, ptr %5, align 4, !tbaa !11
  %34 = icmp eq i32 %33, 18
  br i1 %34, label %38, label %35

35:                                               ; preds = %27
  %36 = load i32, ptr %5, align 4, !tbaa !11
  %37 = icmp eq i32 %36, 33
  br label %38

38:                                               ; preds = %35, %27
  %39 = phi i1 [ true, %27 ], [ %37, %35 ]
  %40 = zext i1 %39 to i32
  %41 = trunc i32 %40 to i8
  store i8 %41, ptr %7, align 1, !tbaa !13
  call void @llvm.lifetime.start.p0(i64 8, ptr %8) #7
  %42 = load ptr, ptr %4, align 8, !tbaa !6
  %43 = getelementptr inbounds nuw %struct.ssl_st, ptr %42, i32 0, i32 14
  %44 = load ptr, ptr %43, align 8, !tbaa !14
  %45 = getelementptr inbounds nuw %struct.ssl3_state_st, ptr %44, i32 0, i32 27
  %46 = getelementptr inbounds nuw %struct.anon, ptr %45, i32 0, i32 18
  %47 = load i8, ptr %46, align 1, !tbaa !39
  %48 = zext i8 %47 to i64
  store i64 %48, ptr %8, align 8, !tbaa !53
  call void @llvm.lifetime.start.p0(i64 8, ptr %9) #7
  %49 = load ptr, ptr %4, align 8, !tbaa !6
  %50 = getelementptr inbounds nuw %struct.ssl_st, ptr %49, i32 0, i32 14
  %51 = load ptr, ptr %50, align 8, !tbaa !14
  %52 = getelementptr inbounds nuw %struct.ssl3_state_st, ptr %51, i32 0, i32 27
  %53 = getelementptr inbounds nuw %struct.anon, ptr %52, i32 0, i32 19
  %54 = load i8, ptr %53, align 2, !tbaa !54
  %55 = zext i8 %54 to i64
  store i64 %55, ptr %9, align 8, !tbaa !53
  call void @llvm.lifetime.start.p0(i64 8, ptr %10) #7
  %56 = load ptr, ptr %4, align 8, !tbaa !6
  %57 = getelementptr inbounds nuw %struct.ssl_st, ptr %56, i32 0, i32 14
  %58 = load ptr, ptr %57, align 8, !tbaa !14
  %59 = getelementptr inbounds nuw %struct.ssl3_state_st, ptr %58, i32 0, i32 27
  %60 = getelementptr inbounds nuw %struct.anon, ptr %59, i32 0, i32 20
  %61 = load i8, ptr %60, align 1, !tbaa !55
  %62 = zext i8 %61 to i64
  store i64 %62, ptr %10, align 8, !tbaa !53
  call void @llvm.lifetime.start.p0(i64 8, ptr %11) #7
  %63 = load ptr, ptr %4, align 8, !tbaa !6
  %64 = getelementptr inbounds nuw %struct.ssl_st, ptr %63, i32 0, i32 14
  %65 = load ptr, ptr %64, align 8, !tbaa !14
  %66 = getelementptr inbounds nuw %struct.ssl3_state_st, ptr %65, i32 0, i32 27
  %67 = getelementptr inbounds nuw %struct.anon, ptr %66, i32 0, i32 16
  %68 = load ptr, ptr %67, align 8, !tbaa !56
  store ptr %68, ptr %11, align 8, !tbaa !57
  call void @llvm.lifetime.start.p0(i64 8, ptr %12) #7
  %69 = load ptr, ptr %11, align 8, !tbaa !57
  store ptr %69, ptr %12, align 8, !tbaa !57
  %70 = load i64, ptr %8, align 8, !tbaa !53
  %71 = load ptr, ptr %11, align 8, !tbaa !57
  %72 = getelementptr inbounds nuw i8, ptr %71, i64 %70
  store ptr %72, ptr %11, align 8, !tbaa !57
  call void @llvm.lifetime.start.p0(i64 8, ptr %13) #7
  %73 = load ptr, ptr %11, align 8, !tbaa !57
  store ptr %73, ptr %13, align 8, !tbaa !57
  %74 = load i64, ptr %8, align 8, !tbaa !53
  %75 = load ptr, ptr %11, align 8, !tbaa !57
  %76 = getelementptr inbounds nuw i8, ptr %75, i64 %74
  store ptr %76, ptr %11, align 8, !tbaa !57
  call void @llvm.lifetime.start.p0(i64 8, ptr %14) #7
  %77 = load ptr, ptr %11, align 8, !tbaa !57
  store ptr %77, ptr %14, align 8, !tbaa !57
  %78 = load i64, ptr %9, align 8, !tbaa !53
  %79 = load ptr, ptr %11, align 8, !tbaa !57
  %80 = getelementptr inbounds nuw i8, ptr %79, i64 %78
  store ptr %80, ptr %11, align 8, !tbaa !57
  call void @llvm.lifetime.start.p0(i64 8, ptr %15) #7
  %81 = load ptr, ptr %11, align 8, !tbaa !57
  store ptr %81, ptr %15, align 8, !tbaa !57
  %82 = load i64, ptr %9, align 8, !tbaa !53
  %83 = load ptr, ptr %11, align 8, !tbaa !57
  %84 = getelementptr inbounds nuw i8, ptr %83, i64 %82
  store ptr %84, ptr %11, align 8, !tbaa !57
  call void @llvm.lifetime.start.p0(i64 8, ptr %16) #7
  %85 = load ptr, ptr %11, align 8, !tbaa !57
  store ptr %85, ptr %16, align 8, !tbaa !57
  %86 = load i64, ptr %10, align 8, !tbaa !53
  %87 = load ptr, ptr %11, align 8, !tbaa !57
  %88 = getelementptr inbounds nuw i8, ptr %87, i64 %86
  store ptr %88, ptr %11, align 8, !tbaa !57
  call void @llvm.lifetime.start.p0(i64 8, ptr %17) #7
  %89 = load ptr, ptr %11, align 8, !tbaa !57
  store ptr %89, ptr %17, align 8, !tbaa !57
  %90 = load i64, ptr %10, align 8, !tbaa !53
  %91 = load ptr, ptr %11, align 8, !tbaa !57
  %92 = getelementptr inbounds nuw i8, ptr %91, i64 %90
  store ptr %92, ptr %11, align 8, !tbaa !57
  call void @llvm.lifetime.start.p0(i64 8, ptr %18) #7
  call void @llvm.lifetime.start.p0(i64 8, ptr %19) #7
  call void @llvm.lifetime.start.p0(i64 8, ptr %20) #7
  %93 = load i8, ptr %7, align 1, !tbaa !13
  %94 = icmp ne i8 %93, 0
  br i1 %94, label %95, label %99

95:                                               ; preds = %38
  %96 = load ptr, ptr %12, align 8, !tbaa !57
  store ptr %96, ptr %18, align 8, !tbaa !57
  %97 = load ptr, ptr %14, align 8, !tbaa !57
  store ptr %97, ptr %19, align 8, !tbaa !57
  %98 = load ptr, ptr %16, align 8, !tbaa !57
  store ptr %98, ptr %20, align 8, !tbaa !57
  br label %103

99:                                               ; preds = %38
  %100 = load ptr, ptr %13, align 8, !tbaa !57
  store ptr %100, ptr %18, align 8, !tbaa !57
  %101 = load ptr, ptr %15, align 8, !tbaa !57
  store ptr %101, ptr %19, align 8, !tbaa !57
  %102 = load ptr, ptr %17, align 8, !tbaa !57
  store ptr %102, ptr %20, align 8, !tbaa !57
  br label %103

103:                                              ; preds = %99, %95
  call void @llvm.lifetime.start.p0(i64 8, ptr %21) #7
  %104 = load i8, ptr %6, align 1, !tbaa !13
  %105 = sext i8 %104 to i32
  %106 = icmp ne i32 %105, 0
  %107 = select i1 %106, i32 0, i32 1
  %108 = load ptr, ptr %4, align 8, !tbaa !6
  %109 = call zeroext i16 @ssl3_protocol_version(ptr noundef %108)
  %110 = load ptr, ptr %4, align 8, !tbaa !6
  %111 = getelementptr inbounds nuw %struct.ssl_st, ptr %110, i32 0, i32 14
  %112 = load ptr, ptr %111, align 8, !tbaa !14
  %113 = getelementptr inbounds nuw %struct.ssl3_state_st, ptr %112, i32 0, i32 27
  %114 = getelementptr inbounds nuw %struct.anon, ptr %113, i32 0, i32 6
  %115 = load ptr, ptr %114, align 8, !tbaa !58
  %116 = load ptr, ptr %19, align 8, !tbaa !57
  %117 = load i64, ptr %9, align 8, !tbaa !53
  %118 = load ptr, ptr %18, align 8, !tbaa !57
  %119 = load i64, ptr %8, align 8, !tbaa !53
  %120 = load ptr, ptr %20, align 8, !tbaa !57
  %121 = load i64, ptr %10, align 8, !tbaa !53
  %122 = call ptr @SSL_AEAD_CTX_new(i32 noundef %107, i16 noundef zeroext %109, ptr noundef %115, ptr noundef %116, i64 noundef %117, ptr noundef %118, i64 noundef %119, ptr noundef %120, i64 noundef %121)
  store ptr %122, ptr %21, align 8, !tbaa !59
  %123 = load ptr, ptr %21, align 8, !tbaa !59
  %124 = icmp eq ptr %123, null
  br i1 %124, label %125, label %126

125:                                              ; preds = %103
  store i32 0, ptr %3, align 4
  store i32 1, ptr %22, align 4
  br label %136

126:                                              ; preds = %103
  %127 = load i8, ptr %6, align 1, !tbaa !13
  %128 = icmp ne i8 %127, 0
  br i1 %128, label %129, label %132

129:                                              ; preds = %126
  %130 = load ptr, ptr %4, align 8, !tbaa !6
  %131 = load ptr, ptr %21, align 8, !tbaa !59
  call void @ssl_set_read_state(ptr noundef %130, ptr noundef %131)
  br label %135

132:                                              ; preds = %126
  %133 = load ptr, ptr %4, align 8, !tbaa !6
  %134 = load ptr, ptr %21, align 8, !tbaa !59
  call void @ssl_set_write_state(ptr noundef %133, ptr noundef %134)
  br label %135

135:                                              ; preds = %132, %129
  store i32 1, ptr %3, align 4
  store i32 1, ptr %22, align 4
  br label %136

136:                                              ; preds = %135, %125
  call void @llvm.lifetime.end.p0(i64 8, ptr %21) #7
  call void @llvm.lifetime.end.p0(i64 8, ptr %20) #7
  call void @llvm.lifetime.end.p0(i64 8, ptr %19) #7
  call void @llvm.lifetime.end.p0(i64 8, ptr %18) #7
  call void @llvm.lifetime.end.p0(i64 8, ptr %17) #7
  call void @llvm.lifetime.end.p0(i64 8, ptr %16) #7
  call void @llvm.lifetime.end.p0(i64 8, ptr %15) #7
  call void @llvm.lifetime.end.p0(i64 8, ptr %14) #7
  call void @llvm.lifetime.end.p0(i64 8, ptr %13) #7
  call void @llvm.lifetime.end.p0(i64 8, ptr %12) #7
  call void @llvm.lifetime.end.p0(i64 8, ptr %11) #7
  call void @llvm.lifetime.end.p0(i64 8, ptr %10) #7
  call void @llvm.lifetime.end.p0(i64 8, ptr %9) #7
  call void @llvm.lifetime.end.p0(i64 8, ptr %8) #7
  call void @llvm.lifetime.end.p0(i64 1, ptr %7) #7
  call void @llvm.lifetime.end.p0(i64 1, ptr %6) #7
  br label %137

137:                                              ; preds = %136, %26
  %138 = load i32, ptr %3, align 4
  ret i32 %138
}