; Function Attrs: nounwind uwtable
define hidden range(i32 0, 2) i32 @tls1_change_cipher_state(ptr noundef %0, i32 noundef %1) local_unnamed_addr #0 {
  %3 = tail call i32 @tls1_setup_key_block(ptr noundef %0)
  %.not = icmp eq i32 %3, 0
  br i1 %.not, label %36, label %4

4:                                                ; preds = %2
  %5 = getelementptr inbounds nuw i8, ptr %0, i64 80
  %6 = load ptr, ptr %5, align 8, !tbaa !6
  %7 = getelementptr inbounds nuw i8, ptr %6, i64 505
  %8 = load i8, ptr %7, align 1, !tbaa !35
  %9 = zext i8 %8 to i64
  %10 = getelementptr inbounds nuw i8, ptr %6, i64 506
  %11 = load i8, ptr %10, align 2, !tbaa !49
  %12 = zext i8 %11 to i64
  %13 = getelementptr inbounds nuw i8, ptr %6, i64 507
  %14 = load i8, ptr %13, align 1, !tbaa !50
  %15 = zext i8 %14 to i64
  %16 = getelementptr inbounds nuw i8, ptr %6, i64 496
  %17 = load ptr, ptr %16, align 8, !tbaa !51
  %18 = getelementptr inbounds nuw i8, ptr %17, i64 %9
  %19 = getelementptr inbounds nuw i8, ptr %18, i64 %9
  %20 = getelementptr inbounds nuw i8, ptr %19, i64 %12
  %21 = getelementptr inbounds nuw i8, ptr %20, i64 %12
  switch i32 %1, label %22 [
    i32 33, label %24
    i32 18, label %24
  ]

22:                                               ; preds = %4
  %23 = getelementptr inbounds nuw i8, ptr %21, i64 %15
  br label %24

24:                                               ; preds = %4, %4, %22
  %.050 = phi ptr [ %18, %22 ], [ %17, %4 ], [ %17, %4 ]
  %.049 = phi ptr [ %20, %22 ], [ %19, %4 ], [ %19, %4 ]
  %.048 = phi ptr [ %23, %22 ], [ %21, %4 ], [ %21, %4 ]
  %25 = and i32 %1, 1
  %26 = xor i32 %25, 1
  %27 = tail call zeroext i16 @ssl3_protocol_version(ptr noundef nonnull %0) #8
  %28 = load ptr, ptr %5, align 8, !tbaa !6
  %29 = getelementptr inbounds nuw i8, ptr %28, i64 440
  %30 = load ptr, ptr %29, align 8, !tbaa !52
  %31 = tail call ptr @SSL_AEAD_CTX_new(i32 noundef %26, i16 noundef zeroext %27, ptr noundef %30, ptr noundef %.049, i64 noundef %12, ptr noundef %.050, i64 noundef %9, ptr noundef %.048, i64 noundef %15) #8
  %32 = icmp eq ptr %31, null
  br i1 %32, label %36, label %33

33:                                               ; preds = %24
  %.not53 = icmp eq i32 %25, 0
  br i1 %.not53, label %35, label %34

34:                                               ; preds = %33
  tail call void @ssl_set_read_state(ptr noundef nonnull %0, ptr noundef nonnull %31) #8
  br label %36

35:                                               ; preds = %33
  tail call void @ssl_set_write_state(ptr noundef nonnull %0, ptr noundef nonnull %31) #8
  br label %36

36:                                               ; preds = %24, %35, %34, %2
  %.0 = phi i32 [ 0, %2 ], [ 0, %24 ], [ 1, %35 ], [ 1, %34 ]
  ret i32 %.0
}